(dp1
S'stepNr'
p2
I1
sS'casefullname'
p3
S'/home/wayne/OpenFOAM/wayne-2.4.0/run/tutorials/myPorous/myGdarcyFoam/FourRegion1D'
p4
sS'fatalError'
p5
I00
sS'fatalStackdump'
p6
I00
sS'fatalFPE'
p7
I00
sS'logfile'
p8
S'FourRegion1D/PyFoamRunner.myGdarcyFoam.logfile'
p9
sS'commandLine'
p10
S'myGdarcyFoam -case FourRegion1D/'
p11
sS'hostname'
p12
S'wayne-GE60-2OC-2OD-2OE'
p13
sS'solverFull'
p14
S'myGdarcyFoam'
p15
sS'lasttimesteptime'
p16
S'Wed Jan 13 15:32:49 2016'
p17
sS'cpuUserTime'
p18
F0.053295000000000002
sS'cpuSystemTime'
p19
F0.0097089999999999989
sS'analyzed'
p20
(dp21
sS'endtime'
p22
S'Wed Jan 13 15:32:49 2016'
p23
sS'remark'
p24
S'No remark given'
p25
sS'OK'
p26
I01
sS'casename'
p27
S'FourRegion1D'
p28
sS'solver'
p29
g15
sS'lines'
p30
I49
sS'interrupted'
p31
I00
sS'cpuTime'
p32
F0.063004000000000004
sS'usedMemory'
p33
F0
sS'starttime'
p34
S'Wed Jan 13 15:32:49 2016'
p35
sS'time'
p36
F1
sS'wallTime'
p37
F0.063491106033325195
s.