(dp1
S'solverFull'
p2
S'myGdarcyFoam'
p3
sS'remark'
p4
S'No remark given'
p5
sS'casename'
p6
S'FourRegion1D'
p7
sS'solver'
p8
g3
sS'commandLine'
p9
S'myGdarcyFoam -case FourRegion1D/'
p10
sS'hostname'
p11
S'wayne-GE60-2OC-2OD-2OE'
p12
sS'lines'
p13
I0
sS'casefullname'
p14
S'/home/wayne/OpenFOAM/wayne-2.4.0/run/tutorials/myPorous/myGdarcyFoam/FourRegion1D'
p15
sS'starttime'
p16
S'Wed Jan 13 15:32:49 2016'
p17
sS'logfile'
p18
S'FourRegion1D/PyFoamRunner.myGdarcyFoam.logfile'
p19
s.